
keyirq_2440.o:     file format elf32-littlearm

Disassembly of section .text:

00000000 <key_poll>:
   0:	e1a0c00d 	mov	ip, sp
   4:	e92dd800 	push	{fp, ip, lr, pc}
   8:	e24cb004 	sub	fp, ip, #4	; 0x4
   c:	e59f3038 	ldr	r3, [pc, #56]	; 4c <key_poll+0x4c>
  10:	e1a0c001 	mov	ip, r1
  14:	e5933000 	ldr	r3, [r3]
  18:	e3510000 	cmp	r1, #0	; 0x0
  1c:	13730010 	cmnne	r3, #16	; 0x10
  20:	e2831010 	add	r1, r3, #16	; 0x10
  24:	11a0200c 	movne	r2, ip
  28:	11a0e00f 	movne	lr, pc
  2c:	159cf000 	ldrne	pc, [ip]
  30:	e59f3014 	ldr	r3, [pc, #20]	; 4c <key_poll+0x4c>
  34:	e5933000 	ldr	r3, [r3]
  38:	e5930018 	ldr	r0, [r3, #24]
  3c:	e3500000 	cmp	r0, #0	; 0x0
  40:	13a00041 	movne	r0, #65	; 0x41
  44:	03a00000 	moveq	r0, #0	; 0x0
  48:	e89da800 	ldm	sp, {fp, sp, pc}
  4c:	00000000 	.word	0x00000000

00000050 <key_interrupt>:
  50:	e1a0c00d 	mov	ip, sp
  54:	e92dd810 	push	{r4, fp, ip, lr, pc}
  58:	e24cb004 	sub	fp, ip, #4	; 0x4
  5c:	e3a03018 	mov	r3, #24	; 0x18
  60:	e0000193 	mul	r0, r3, r1
  64:	e59f3028 	ldr	r3, [pc, #40]	; 94 <key_interrupt+0x44>
  68:	e3a04001 	mov	r4, #1	; 0x1
  6c:	e5932000 	ldr	r2, [r3]
  70:	e59f3020 	ldr	r3, [pc, #32]	; 98 <key_interrupt+0x48>
  74:	e5824018 	str	r4, [r2, #24]
  78:	e5931000 	ldr	r1, [r3]
  7c:	e2800020 	add	r0, r0, #32	; 0x20
  80:	e0820000 	add	r0, r2, r0
  84:	e2811002 	add	r1, r1, #2	; 0x2
  88:	ebfffffe 	bl	0 <mod_timer>
  8c:	e1a00004 	mov	r0, r4
  90:	e89da810 	ldm	sp, {r4, fp, sp, pc}
	...

0000009c <key_fasync>:
  9c:	e1a0c00d 	mov	ip, sp
  a0:	e92dd800 	push	{fp, ip, lr, pc}
  a4:	e24cb004 	sub	fp, ip, #4	; 0x4
  a8:	e59f3018 	ldr	r3, [pc, #24]	; c8 <key_fasync+0x2c>
  ac:	e5933000 	ldr	r3, [r3]
  b0:	e283301c 	add	r3, r3, #28	; 0x1c
  b4:	ebfffffe 	bl	0 <fasync_helper>
  b8:	e3500000 	cmp	r0, #0	; 0x0
  bc:	b3e00004 	mvnlt	r0, #4	; 0x4
  c0:	a3a00000 	movge	r0, #0	; 0x0
  c4:	e89da800 	ldm	sp, {fp, sp, pc}
  c8:	00000000 	.word	0x00000000

000000cc <key_release>:
  cc:	e1a0c00d 	mov	ip, sp
  d0:	e92dd810 	push	{r4, fp, ip, lr, pc}
  d4:	e24cb004 	sub	fp, ip, #4	; 0x4
  d8:	e59f3050 	ldr	r3, [pc, #80]	; 130 <key_release+0x64>
  dc:	e5932000 	ldr	r2, [r3]
  e0:	e5923008 	ldr	r3, [r2, #8]
  e4:	e2433001 	sub	r3, r3, #1	; 0x1
  e8:	e3530000 	cmp	r3, #0	; 0x0
  ec:	e5823008 	str	r3, [r2, #8]
  f0:	ca00000c 	bgt	128 <key_release+0x5c>
  f4:	e59f4038 	ldr	r4, [pc, #56]	; 134 <key_release+0x68>
  f8:	e3a01000 	mov	r1, #0	; 0x0
  fc:	e5940000 	ldr	r0, [r4]
 100:	ebfffffe 	bl	0 <free_irq>
 104:	e5940010 	ldr	r0, [r4, #16]
 108:	e3a01001 	mov	r1, #1	; 0x1
 10c:	ebfffffe 	bl	0 <free_irq>
 110:	e5940020 	ldr	r0, [r4, #32]
 114:	e3a01002 	mov	r1, #2	; 0x2
 118:	ebfffffe 	bl	0 <free_irq>
 11c:	e5940030 	ldr	r0, [r4, #48]
 120:	e3a01003 	mov	r1, #3	; 0x3
 124:	ebfffffe 	bl	0 <free_irq>
 128:	e3a00000 	mov	r0, #0	; 0x0
 12c:	e89da810 	ldm	sp, {r4, fp, sp, pc}
	...

00000138 <key_drv_open>:
 138:	e1a0c00d 	mov	ip, sp
 13c:	e92dd830 	push	{r4, r5, fp, ip, lr, pc}
 140:	e24cb004 	sub	fp, ip, #4	; 0x4
 144:	e24dd004 	sub	sp, sp, #4	; 0x4
 148:	e59f0084 	ldr	r0, [pc, #132]	; 1d4 <key_drv_open+0x9c>
 14c:	e59f1084 	ldr	r1, [pc, #132]	; 1d8 <key_drv_open+0xa0>
 150:	ebfffffe 	bl	0 <printk>
 154:	e59f3080 	ldr	r3, [pc, #128]	; 1dc <key_drv_open+0xa4>
 158:	e5932000 	ldr	r2, [r3]
 15c:	e5923008 	ldr	r3, [r2, #8]
 160:	e3530000 	cmp	r3, #0	; 0x0
 164:	c2833001 	addgt	r3, r3, #1	; 0x1
 168:	c5823008 	strgt	r3, [r2, #8]
 16c:	c3a00000 	movgt	r0, #0	; 0x0
 170:	c89da838 	ldmgt	sp, {r3, r4, r5, fp, sp, pc}
 174:	e3a03001 	mov	r3, #1	; 0x1
 178:	e59f4060 	ldr	r4, [pc, #96]	; 1e0 <key_drv_open+0xa8>
 17c:	e5823008 	str	r3, [r2, #8]
 180:	e3a05000 	mov	r5, #0	; 0x0
 184:	e5940000 	ldr	r0, [r4]
 188:	e5941008 	ldr	r1, [r4, #8]
 18c:	e5942004 	ldr	r2, [r4, #4]
 190:	e594300c 	ldr	r3, [r4, #12]
 194:	e58d5000 	str	r5, [sp]
 198:	ebfffffe 	bl	0 <request_irq>
 19c:	e3500000 	cmp	r0, #0	; 0x0
 1a0:	e2844010 	add	r4, r4, #16	; 0x10
 1a4:	0a000006 	beq	1c4 <key_drv_open+0x8c>
 1a8:	e59f3030 	ldr	r3, [pc, #48]	; 1e0 <key_drv_open+0xa8>
 1ac:	e1a02000 	mov	r2, r0
 1b0:	e7931205 	ldr	r1, [r3, r5, lsl #4]
 1b4:	e59f0028 	ldr	r0, [pc, #40]	; 1e4 <key_drv_open+0xac>
 1b8:	ebfffffe 	bl	0 <printk>
 1bc:	e3e0000a 	mvn	r0, #10	; 0xa
 1c0:	e89da838 	ldm	sp, {r3, r4, r5, fp, sp, pc}
 1c4:	e2855001 	add	r5, r5, #1	; 0x1
 1c8:	e3550004 	cmp	r5, #4	; 0x4
 1cc:	1affffec 	bne	184 <key_drv_open+0x4c>
 1d0:	e89da838 	ldm	sp, {r3, r4, r5, fp, sp, pc}
 1d4:	00000000 	.word	0x00000000
 1d8:	0000000d 	.word	0x0000000d
	...
 1e4:	0000001f 	.word	0x0000001f

000001e8 <key_drv_read>:
 1e8:	e1a0c00d 	mov	ip, sp
 1ec:	e92dd870 	push	{r4, r5, r6, fp, ip, lr, pc}
 1f0:	e24cb004 	sub	fp, ip, #4	; 0x4
 1f4:	e24dd014 	sub	sp, sp, #20	; 0x14
 1f8:	e1a04000 	mov	r4, r0
 1fc:	e1a06001 	mov	r6, r1
 200:	e59f0184 	ldr	r0, [pc, #388]	; 38c <key_drv_read+0x1a4>
 204:	e59f1184 	ldr	r1, [pc, #388]	; 390 <key_drv_read+0x1a8>
 208:	ebfffffe 	bl	0 <printk>
 20c:	e5943018 	ldr	r3, [r4, #24]
 210:	e59f117c 	ldr	r1, [pc, #380]	; 394 <key_drv_read+0x1ac>
 214:	e3130b0a 	tst	r3, #10240	; 0x2800
 218:	0a000016 	beq	278 <key_drv_read+0x90>
 21c:	e10f4000 	mrs	r4, CPSR
 220:	e3843080 	orr	r3, r4, #128	; 0x80
 224:	e121f003 	msr	CPSR_c, r3
 228:	e1a0200d 	mov	r2, sp
 22c:	e3c23d7f 	bic	r3, r2, #8128	; 0x1fc0
 230:	e3c3303f 	bic	r3, r3, #63	; 0x3f
 234:	e5933008 	ldr	r3, [r3, #8]
 238:	e2962004 	adds	r2, r6, #4	; 0x4
 23c:	30d22003 	sbcscc	r2, r2, r3
 240:	33a03000 	movcc	r3, #0	; 0x0
 244:	e3530000 	cmp	r3, #0	; 0x0
 248:	e5911000 	ldr	r1, [r1]
 24c:	1a000005 	bne	268 <key_drv_read+0x80>
 250:	e1a00006 	mov	r0, r6
 254:	e281100c 	add	r1, r1, #12	; 0xc
 258:	e3a02004 	mov	r2, #4	; 0x4
 25c:	ebfffffe 	bl	0 <__copy_to_user>
 260:	e3500000 	cmp	r0, #0	; 0x0
 264:	0a000001 	beq	270 <key_drv_read+0x88>
 268:	e121f004 	msr	CPSR_c, r4
 26c:	ea000038 	b	354 <key_drv_read+0x16c>
 270:	e121f004 	msr	CPSR_c, r4
 274:	ea000041 	b	380 <key_drv_read+0x198>
 278:	e5913000 	ldr	r3, [r1]
 27c:	e5931018 	ldr	r1, [r3, #24]
 280:	e3510000 	cmp	r1, #0	; 0x0
 284:	1a00001d 	bne	300 <key_drv_read+0x118>
 288:	e1a0200d 	mov	r2, sp
 28c:	e24b402c 	sub	r4, fp, #44	; 0x2c
 290:	e3c23d7f 	bic	r3, r2, #8128	; 0x1fc0
 294:	e3c3303f 	bic	r3, r3, #63	; 0x3f
 298:	e1a00004 	mov	r0, r4
 29c:	e3a02014 	mov	r2, #20	; 0x14
 2a0:	e593500c 	ldr	r5, [r3, #12]
 2a4:	ebfffffe 	bl	0 <memset>
 2a8:	e59f30e8 	ldr	r3, [pc, #232]	; 398 <key_drv_read+0x1b0>
 2ac:	e284400c 	add	r4, r4, #12	; 0xc
 2b0:	e50b5028 	str	r5, [fp, #-40]
 2b4:	e50b3024 	str	r3, [fp, #-36]
 2b8:	e50b401c 	str	r4, [fp, #-28]
 2bc:	e50b4020 	str	r4, [fp, #-32]
 2c0:	e59f40cc 	ldr	r4, [pc, #204]	; 394 <key_drv_read+0x1ac>
 2c4:	e24b502c 	sub	r5, fp, #44	; 0x2c
 2c8:	e5940000 	ldr	r0, [r4]
 2cc:	e1a01005 	mov	r1, r5
 2d0:	e2800010 	add	r0, r0, #16	; 0x10
 2d4:	e3a02002 	mov	r2, #2	; 0x2
 2d8:	ebfffffe 	bl	0 <prepare_to_wait>
 2dc:	e5940000 	ldr	r0, [r4]
 2e0:	e5903018 	ldr	r3, [r0, #24]
 2e4:	e3530000 	cmp	r3, #0	; 0x0
 2e8:	1a000001 	bne	2f4 <key_drv_read+0x10c>
 2ec:	ebfffffe 	bl	0 <schedule>
 2f0:	eafffff2 	b	2c0 <key_drv_read+0xd8>
 2f4:	e2800010 	add	r0, r0, #16	; 0x10
 2f8:	e1a01005 	mov	r1, r5
 2fc:	ebfffffe 	bl	0 <finish_wait>
 300:	e10f4000 	mrs	r4, CPSR
 304:	e3843080 	orr	r3, r4, #128	; 0x80
 308:	e121f003 	msr	CPSR_c, r3
 30c:	e1a0200d 	mov	r2, sp
 310:	e3c23d7f 	bic	r3, r2, #8128	; 0x1fc0
 314:	e3c3303f 	bic	r3, r3, #63	; 0x3f
 318:	e5933008 	ldr	r3, [r3, #8]
 31c:	e2962004 	adds	r2, r6, #4	; 0x4
 320:	30d22003 	sbcscc	r2, r2, r3
 324:	33a03000 	movcc	r3, #0	; 0x0
 328:	e3530000 	cmp	r3, #0	; 0x0
 32c:	e59f3060 	ldr	r3, [pc, #96]	; 394 <key_drv_read+0x1ac>
 330:	e5931000 	ldr	r1, [r3]
 334:	1a000005 	bne	350 <key_drv_read+0x168>
 338:	e1a00006 	mov	r0, r6
 33c:	e281100c 	add	r1, r1, #12	; 0xc
 340:	e3a02004 	mov	r2, #4	; 0x4
 344:	ebfffffe 	bl	0 <__copy_to_user>
 348:	e3500000 	cmp	r0, #0	; 0x0
 34c:	0a000002 	beq	35c <key_drv_read+0x174>
 350:	e121f004 	msr	CPSR_c, r4
 354:	e3e0000d 	mvn	r0, #13	; 0xd
 358:	ea000009 	b	384 <key_drv_read+0x19c>
 35c:	e121f004 	msr	CPSR_c, r4
 360:	e10f1000 	mrs	r1, CPSR
 364:	e3813080 	orr	r3, r1, #128	; 0x80
 368:	e121f003 	msr	CPSR_c, r3
 36c:	e59f3020 	ldr	r3, [pc, #32]	; 394 <key_drv_read+0x1ac>
 370:	e5932000 	ldr	r2, [r3]
 374:	e3a03000 	mov	r3, #0	; 0x0
 378:	e5823018 	str	r3, [r2, #24]
 37c:	e121f001 	msr	CPSR_c, r1
 380:	e3a00004 	mov	r0, #4	; 0x4
 384:	e24bd018 	sub	sp, fp, #24	; 0x18
 388:	e89da870 	ldm	sp, {r4, r5, r6, fp, sp, pc}
 38c:	00000000 	.word	0x00000000
 390:	0000001a 	.word	0x0000001a
	...

0000039c <key_timerfunction>:
 39c:	e1a0c00d 	mov	ip, sp
 3a0:	e92dd830 	push	{r4, r5, fp, ip, lr, pc}
 3a4:	e24cb004 	sub	fp, ip, #4	; 0x4
 3a8:	e59f508c 	ldr	r5, [pc, #140]	; 43c <key_timerfunction+0xa0>
 3ac:	e1a04000 	mov	r4, r0
 3b0:	e5953000 	ldr	r3, [r5]
 3b4:	e5933018 	ldr	r3, [r3, #24]
 3b8:	e3530000 	cmp	r3, #0	; 0x0
 3bc:	089da830 	ldmeq	sp, {r4, r5, fp, sp, pc}
 3c0:	e59f3078 	ldr	r3, [pc, #120]	; 440 <key_timerfunction+0xa4>
 3c4:	e0833180 	add	r3, r3, r0, lsl #3
 3c8:	e5930040 	ldr	r0, [r3, #64]
 3cc:	ebfffffe 	bl	0 <s3c2410_gpio_getpin>
 3d0:	e3500000 	cmp	r0, #0	; 0x0
 3d4:	15952000 	ldrne	r2, [r5]
 3d8:	05952000 	ldreq	r2, [r5]
 3dc:	12843001 	addne	r3, r4, #1	; 0x1
 3e0:	01e03004 	mvneq	r3, r4
 3e4:	e582300c 	str	r3, [r2, #12]
 3e8:	e10f1000 	mrs	r1, CPSR
 3ec:	e3813080 	orr	r3, r1, #128	; 0x80
 3f0:	e121f003 	msr	CPSR_c, r3
 3f4:	e59f3040 	ldr	r3, [pc, #64]	; 43c <key_timerfunction+0xa0>
 3f8:	e5932000 	ldr	r2, [r3]
 3fc:	e3a03001 	mov	r3, #1	; 0x1
 400:	e5823018 	str	r3, [r2, #24]
 404:	e121f001 	msr	CPSR_c, r1
 408:	e59f402c 	ldr	r4, [pc, #44]	; 43c <key_timerfunction+0xa0>
 40c:	e3a01003 	mov	r1, #3	; 0x3
 410:	e5940000 	ldr	r0, [r4]
 414:	e3a02001 	mov	r2, #1	; 0x1
 418:	e2800010 	add	r0, r0, #16	; 0x10
 41c:	e3a03000 	mov	r3, #0	; 0x0
 420:	ebfffffe 	bl	0 <__wake_up>
 424:	e5940000 	ldr	r0, [r4]
 428:	e3a0101d 	mov	r1, #29	; 0x1d
 42c:	e280001c 	add	r0, r0, #28	; 0x1c
 430:	e59f200c 	ldr	r2, [pc, #12]	; 444 <key_timerfunction+0xa8>
 434:	ebfffffe 	bl	0 <kill_fasync>
 438:	e89da830 	ldm	sp, {r4, r5, fp, sp, pc}
	...
 444:	00020001 	.word	0x00020001
Disassembly of section .exit.text:

00000000 <cleanup_module>:
   0:	e1a0c00d 	mov	ip, sp
   4:	e92dd810 	push	{r4, fp, ip, lr, pc}
   8:	e24cb004 	sub	fp, ip, #4	; 0x4
   c:	e59f4070 	ldr	r4, [pc, #112]	; 84 <cleanup_module+0x84>
  10:	e59f1070 	ldr	r1, [pc, #112]	; 88 <cleanup_module+0x88>
  14:	e59f0070 	ldr	r0, [pc, #112]	; 8c <cleanup_module+0x8c>
  18:	ebfffffe 	bl	0 <printk>
  1c:	e5940000 	ldr	r0, [r4]
  20:	e2800020 	add	r0, r0, #32	; 0x20
  24:	ebfffffe 	bl	0 <del_timer>
  28:	e5940000 	ldr	r0, [r4]
  2c:	e2800038 	add	r0, r0, #56	; 0x38
  30:	ebfffffe 	bl	0 <del_timer>
  34:	e5940000 	ldr	r0, [r4]
  38:	e2800050 	add	r0, r0, #80	; 0x50
  3c:	ebfffffe 	bl	0 <del_timer>
  40:	e5940000 	ldr	r0, [r4]
  44:	e2800068 	add	r0, r0, #104	; 0x68
  48:	ebfffffe 	bl	0 <del_timer>
  4c:	e5943000 	ldr	r3, [r4]
  50:	e8930003 	ldm	r3, {r0, r1}
  54:	e1a01a01 	lsl	r1, r1, #20
  58:	ebfffffe 	bl	0 <class_device_destroy>
  5c:	e5943000 	ldr	r3, [r4]
  60:	e5930000 	ldr	r0, [r3]
  64:	ebfffffe 	bl	0 <class_destroy>
  68:	e5943000 	ldr	r3, [r4]
  6c:	e59f101c 	ldr	r1, [pc, #28]	; 90 <cleanup_module+0x90>
  70:	e5930004 	ldr	r0, [r3, #4]
  74:	ebfffffe 	bl	0 <unregister_chrdev>
  78:	e5940000 	ldr	r0, [r4]
  7c:	ebfffffe 	bl	0 <kfree>
  80:	e89da810 	ldm	sp, {r4, fp, sp, pc}
	...
  90:	00000016 	.word	0x00000016
Disassembly of section .init.text:

00000000 <init_module>:
   0:	e1a0c00d 	mov	ip, sp
   4:	e92dd9f0 	push	{r4, r5, r6, r7, r8, fp, ip, lr, pc}
   8:	e24cb004 	sub	fp, ip, #4	; 0x4
   c:	e24dd004 	sub	sp, sp, #4	; 0x4
  10:	e59f1168 	ldr	r1, [pc, #360]	; 180 <init_module+0x180>
  14:	e59f0168 	ldr	r0, [pc, #360]	; 184 <init_module+0x184>
  18:	ebfffffe 	bl	0 <printk>
  1c:	e59f3164 	ldr	r3, [pc, #356]	; 188 <init_module+0x188>
  20:	e3a010d0 	mov	r1, #208	; 0xd0
  24:	e5930034 	ldr	r0, [r3, #52]
  28:	ebfffffe 	bl	0 <kmem_cache_zalloc>
  2c:	e59f4158 	ldr	r4, [pc, #344]	; 18c <init_module+0x18c>
  30:	e3500000 	cmp	r0, #0	; 0x0
  34:	e5840000 	str	r0, [r4]
  38:	03e0500b 	mvneq	r5, #11	; 0xb
  3c:	0a00004d 	beq	178 <init_module+0x178>
  40:	e3a01084 	mov	r1, #132	; 0x84
  44:	ebfffffe 	bl	0 <__memzero>
  48:	e5940000 	ldr	r0, [r4]
  4c:	e3a05000 	mov	r5, #0	; 0x0
  50:	e2800010 	add	r0, r0, #16	; 0x10
  54:	ebfffffe 	bl	0 <init_waitqueue_head>
  58:	e3a03018 	mov	r3, #24	; 0x18
  5c:	e0040593 	mul	r4, r3, r5
  60:	e59f6124 	ldr	r6, [pc, #292]	; 18c <init_module+0x18c>
  64:	e2848020 	add	r8, r4, #32	; 0x20
  68:	e5960000 	ldr	r0, [r6]
  6c:	e0800008 	add	r0, r0, r8
  70:	ebfffffe 	bl	0 <init_timer>
  74:	e5960000 	ldr	r0, [r6]
  78:	e59f3110 	ldr	r3, [pc, #272]	; 190 <init_module+0x190>
  7c:	e0802004 	add	r2, r0, r4
  80:	e5927020 	ldr	r7, [r2, #32]
  84:	e582302c 	str	r3, [r2, #44]
  88:	e3570000 	cmp	r7, #0	; 0x0
  8c:	e5825030 	str	r5, [r2, #48]
  90:	159f00fc 	ldrne	r0, [pc, #252]	; 194 <init_module+0x194>
  94:	13a01099 	movne	r1, #153	; 0x99
  98:	1bfffffe 	blne	0 <__bug>
  9c:	e0800008 	add	r0, r0, r8
  a0:	e5921028 	ldr	r1, [r2, #40]
  a4:	e2855001 	add	r5, r5, #1	; 0x1
  a8:	ebfffffe 	bl	0 <__mod_timer>
  ac:	e3550004 	cmp	r5, #4	; 0x4
  b0:	1affffe8 	bne	58 <init_module+0x58>
  b4:	e5960004 	ldr	r0, [r6, #4]
  b8:	e59f10d8 	ldr	r1, [pc, #216]	; 198 <init_module+0x198>
  bc:	e59f20d8 	ldr	r2, [pc, #216]	; 19c <init_module+0x19c>
  c0:	ebfffffe 	bl	0 <register_chrdev>
  c4:	e3500000 	cmp	r0, #0	; 0x0
  c8:	e1a05000 	mov	r5, r0
  cc:	e5860004 	str	r0, [r6, #4]
  d0:	aa000003 	bge	e4 <init_module+0xe4>
  d4:	e1a01000 	mov	r1, r0
  d8:	e59f00c0 	ldr	r0, [pc, #192]	; 1a0 <init_module+0x1a0>
  dc:	ebfffffe 	bl	0 <printk>
  e0:	ea000021 	b	16c <init_module+0x16c>
  e4:	e5964000 	ldr	r4, [r6]
  e8:	e59f00b4 	ldr	r0, [pc, #180]	; 1a4 <init_module+0x1a4>
  ec:	e5845004 	str	r5, [r4, #4]
  f0:	e59f10b0 	ldr	r1, [pc, #176]	; 1a8 <init_module+0x1a8>
  f4:	ebfffffe 	bl	0 <class_create>
  f8:	e5840000 	str	r0, [r4]
  fc:	e5963000 	ldr	r3, [r6]
 100:	e5930000 	ldr	r0, [r3]
 104:	e3700a01 	cmn	r0, #4096	; 0x1000
 108:	81a05000 	movhi	r5, r0
 10c:	8a000011 	bhi	158 <init_module+0x158>
 110:	e5962004 	ldr	r2, [r6, #4]
 114:	e59fc090 	ldr	ip, [pc, #144]	; 1ac <init_module+0x1ac>
 118:	e1a02a02 	lsl	r2, r2, #20
 11c:	e1a01007 	mov	r1, r7
 120:	e1a03007 	mov	r3, r7
 124:	e58dc000 	str	ip, [sp]
 128:	ebfffffe 	bl	0 <class_device_create>
 12c:	e3700a01 	cmn	r0, #4096	; 0x1000
 130:	e1a04000 	mov	r4, r0
 134:	91a05007 	movls	r5, r7
 138:	9a00000e 	bls	178 <init_module+0x178>
 13c:	e59f006c 	ldr	r0, [pc, #108]	; 1b0 <init_module+0x1b0>
 140:	e59f1038 	ldr	r1, [pc, #56]	; 180 <init_module+0x180>
 144:	ebfffffe 	bl	0 <printk>
 148:	e5963000 	ldr	r3, [r6]
 14c:	e1a05004 	mov	r5, r4
 150:	e5930000 	ldr	r0, [r3]
 154:	ebfffffe 	bl	0 <class_destroy>
 158:	e59f302c 	ldr	r3, [pc, #44]	; 18c <init_module+0x18c>
 15c:	e59f1034 	ldr	r1, [pc, #52]	; 198 <init_module+0x198>
 160:	e5933000 	ldr	r3, [r3]
 164:	e5930004 	ldr	r0, [r3, #4]
 168:	ebfffffe 	bl	0 <unregister_chrdev>
 16c:	e59f3018 	ldr	r3, [pc, #24]	; 18c <init_module+0x18c>
 170:	e5930000 	ldr	r0, [r3]
 174:	ebfffffe 	bl	0 <kfree>
 178:	e1a00005 	mov	r0, r5
 17c:	e89da9f8 	ldm	sp, {r3, r4, r5, r6, r7, r8, fp, sp, pc}
 180:	00000027 	.word	0x00000027
 184:	0000004c 	.word	0x0000004c
	...
 194:	00000067 	.word	0x00000067
 198:	00000016 	.word	0x00000016
 19c:	00000034 	.word	0x00000034
 1a0:	0000007d 	.word	0x0000007d
 1a4:	00000000 	.word	0x00000000
 1a8:	00000091 	.word	0x00000091
 1ac:	00000096 	.word	0x00000096
 1b0:	0000009c 	.word	0x0000009c
Disassembly of section .modinfo:

00000000 <__mod_major34>:
   0:	6d726170 	ldfvse	f6, [r2, #-448]!
   4:	6a616d3d 	bvs	185b500 <key_timerfunction+0x185b164>
   8:	4d3a726f 	lfmmi	f7, 4, [sl, #-444]!
   c:	726f6a61 	rsbvc	r6, pc, #397312	; 0x61000
  10:	76656420 	strbtvc	r6, [r5], -r0, lsr #8
  14:	20656369 	rsbcs	r6, r5, r9, ror #6
  18:	626d756e 	rsbvs	r7, sp, #461373440	; 0x1b800000
  1c:	70007265 	andvc	r7, r0, r5, ror #4

0000001f <__mod_majortype33>:
  1f:	70          	.byte	0x70
  20:	746d7261 	.word	0x746d7261
  24:	7079      	.short	0x7079
  26:	65          	.byte	0x65
  27:	3d          	.byte	0x3d
  28:	6f6a616d 	.word	0x6f6a616d
  2c:	6e693a72 	.word	0x6e693a72
  30:	0074      	.short	0x0074

00000032 <__mod_license29>:
  32:	696c      	.short	0x696c
  34:	736e6563 	.word	0x736e6563
  38:	50473d65 	.word	0x50473d65
  3c:	004c      	.short	0x004c

0000003e <__mod_description28>:
  3e:	6564      	.short	0x6564
  40:	69726373 	.word	0x69726373
  44:	6f697470 	.word	0x6f697470
  48:	5a4a3d6e 	.word	0x5a4a3d6e
  4c:	30343432 	.word	0x30343432
  50:	59454b20 	.word	0x59454b20
  54:	49504720 	.word	0x49504720
  58:	6950204f 	.word	0x6950204f
  5c:	7244206e 	.word	0x7244206e
  60:	72657669 	.word	0x72657669
	...

00000065 <__mod_author27>:
  65:	68747561 	ldmdavs	r4!, {r0, r5, r6, r8, sl, ip, sp, lr}^
  69:	793d726f 	ldmdbvc	sp!, {r0, r1, r2, r3, r5, r6, r9, ip, sp, lr}
  6d:	20676e61 	rsbcs	r6, r7, r1, ror #28
  71:	676e696d 	strbvs	r6, [lr, -sp, ror #18]!
  75:	6e657020 	cdpvs	0, 6, cr7, cr5, cr0, {1}
  79:	696c3c67 	stmdbvs	ip!, {r0, r1, r2, r5, r6, sl, fp, ip, sp}^
  7d:	6e61697a 	mcrvs	9, 3, r6, cr1, cr10, {3}
  81:	6d797064 	ldclvs	0, cr7, [r9, #-400]!
  85:	2e717140 	rpwcssm	f7, f1, f0
  89:	3e6d6f63 	cdpcc	15, 6, cr6, cr13, cr3, {3}
	...
Disassembly of section __param:

00000000 <__param_major>:
   0:	00000060 	.word	0x00000060
	...
  10:	00000004 	.word	0x00000004